; Function Attrs: mustprogress uwtable
define noundef i32 @_ZN12colvarscript24set_result_text_from_strERKNSt7__cxx1112basic_stringIcSt11char_traitsIcESaIcEEEPh(ptr noundef nonnull align 8 dereferenceable(304) %0, ptr noundef nonnull align 8 dereferenceable(32) %1, ptr noundef writeonly %2) local_unnamed_addr #0 align 2 {
  %.not = icmp eq ptr %2, null
  br i1 %.not, label %7, label %4

4:                                                ; preds = %3
  %5 = tail call noundef ptr @_ZNKSt7__cxx1112basic_stringIcSt11char_traitsIcESaIcEE5c_strEv(ptr noundef nonnull align 8 dereferenceable(32) %1) #17
  %6 = tail call noundef i64 @_ZNKSt7__cxx1112basic_stringIcSt11char_traitsIcESaIcEE4sizeEv(ptr noundef nonnull align 8 dereferenceable(32) %1) #17
  tail call void @llvm.memcpy.p0.p0.i64(ptr nonnull align 1 %2, ptr align 1 %5, i64 %6, i1 false)
  br label %_ZN12colvarscript14set_result_strERKNSt7__cxx1112basic_stringIcSt11char_traitsIcESaIcEEE.exit

7:                                                ; preds = %3
  %8 = load i32, ptr @_ZN12colvarmodule9errorCodeE, align 4
  %.not.i = icmp eq i32 %8, 0
  %9 = getelementptr inbounds i8, ptr %0, i64 16
  br i1 %.not.i, label %12, label %10

10:                                               ; preds = %7
  %11 = tail call noundef nonnull align 8 dereferenceable(32) ptr @_ZNSt7__cxx1112basic_stringIcSt11char_traitsIcESaIcEEpLERKS4_(ptr noundef nonnull align 8 dereferenceable(32) %9, ptr noundef nonnull align 8 dereferenceable(32) %1)
  br label %_ZN12colvarscript14set_result_strERKNSt7__cxx1112basic_stringIcSt11char_traitsIcESaIcEEE.exit

12:                                               ; preds = %7
  %13 = tail call noundef nonnull align 8 dereferenceable(32) ptr @_ZNSt7__cxx1112basic_stringIcSt11char_traitsIcESaIcEEaSERKS4_(ptr noundef nonnull align 8 dereferenceable(32) %9, ptr noundef nonnull align 8 dereferenceable(32) %1)
  br label %_ZN12colvarscript14set_result_strERKNSt7__cxx1112basic_stringIcSt11char_traitsIcESaIcEEE.exit

_ZN12colvarscript14set_result_strERKNSt7__cxx1112basic_stringIcSt11char_traitsIcESaIcEEE.exit: ; preds = %12, %10, %4
  ret i32 0
}